target datalayout = "e-m:e-p270:32:32-p271:32:32-p272:64:64-i64:64-i128:128-f80:128-n8:16:32:64-S128"
target triple = "x86_64-pc-linux-gnu"

%class.MarkedFileReader = type { %class.FileReader, i64 }
%class.FileReader = type { ptr, ptr }
%class.ElfFile = type { ptr, ptr, ptr, ptr, ptr, ptr, ptr, ptr, i32, ptr, %struct.Elf64_Ehdr }
%struct.Elf64_Ehdr = type { [16 x i8], i16, i16, i32, i64, i64, i64, i32, i16, i16, i16, i16, i16, i16 }
%"class.DwarfFile::DebugAranges" = type { ptr, %"class.DwarfFile::MarkedDwarfFileReader", i64, i64 }
%"class.DwarfFile::MarkedDwarfFileReader" = type { %class.MarkedFileReader, i64, i64 }
%"class.DwarfFile::CompilationUnit" = type { ptr, %"class.DwarfFile::MarkedDwarfFileReader", %"struct.DwarfFile::CompilationUnit::CompilationUnitHeader", i32, i32 }
%"struct.DwarfFile::CompilationUnit::CompilationUnitHeader" = type { i32, i16, i32, i8 }
%"class.DwarfFile::LineNumberProgram" = type <{ ptr, %"class.DwarfFile::MarkedDwarfFileReader", %"struct.DwarfFile::LineNumberProgram::LineNumberProgramHeader", ptr, i32, [4 x i8], i64, i8, [7 x i8] }>
%"struct.DwarfFile::LineNumberProgram::LineNumberProgramHeader" = type { i32, i16, i32, i8, i8, i8, i8, i8, i8, [12 x i8], i64 }

@_ZTV16MarkedFileReader = linkonce_odr hidden unnamed_addr constant { [3 x ptr] } { [3 x ptr] [ptr null, ptr null, ptr @_ZN10FileReader12set_positionEl] }, comdat, align 8
@_ZTV10FileReader = hidden unnamed_addr constant { [3 x ptr] } { [3 x ptr] [ptr null, ptr null, ptr @_ZN10FileReader12set_positionEl] }, align 8
@_ZTVN9DwarfFile21MarkedDwarfFileReaderE = hidden unnamed_addr constant { [3 x ptr] } { [3 x ptr] [ptr null, ptr null, ptr @_ZN9DwarfFile21MarkedDwarfFileReader12set_positionEl] }, align 8

; Function Attrs: mustprogress nounwind uwtable
define linkonce_odr hidden void @_ZN10FileReaderC2EP8_IO_FILE(ptr noundef nonnull align 8 dereferenceable(16) %0, ptr noundef %1) unnamed_addr #1 comdat align 2 {
  %3 = alloca ptr, align 8
  %4 = alloca ptr, align 8
  store ptr %0, ptr %3, align 8
  store ptr %1, ptr %4, align 8
  %5 = load ptr, ptr %3, align 8
  store ptr getelementptr inbounds inrange(-16, 8) ({ [3 x ptr] }, ptr @_ZTV10FileReader, i32 0, i32 0, i32 2), ptr %5, align 8
  %6 = getelementptr inbounds %class.FileReader, ptr %5, i32 0, i32 1
  %7 = load ptr, ptr %4, align 8
  store ptr %7, ptr %6, align 8
  ret void
}

; Function Attrs: mustprogress nounwind uwtable
define hidden void @_ZN16MarkedFileReaderD2Ev(ptr noundef nonnull align 8 dereferenceable(24) %0) unnamed_addr #1 align 2 {
  %2 = alloca ptr, align 8
  store ptr %0, ptr %2, align 8
  %3 = load ptr, ptr %2, align 8
  store ptr getelementptr inbounds inrange(-16, 8) ({ [3 x ptr] }, ptr @_ZTV16MarkedFileReader, i32 0, i32 0, i32 2), ptr %3, align 8
  %4 = getelementptr inbounds %class.MarkedFileReader, ptr %3, i32 0, i32 1
  %5 = load i64, ptr %4, align 8
  %6 = icmp ne i64 %5, -1
  br i1 %6, label %7, label %14

7:                                                ; preds = %1
  %8 = getelementptr inbounds %class.MarkedFileReader, ptr %3, i32 0, i32 1
  %9 = load i64, ptr %8, align 8
  %10 = load ptr, ptr %3, align 8
  %11 = getelementptr inbounds ptr, ptr %10, i64 0
  %12 = load ptr, ptr %11, align 8
  %13 = call noundef zeroext i1 %12(ptr noundef nonnull align 8 dereferenceable(16) %3, i64 noundef %9)
  br label %14

14:                                               ; preds = %7, %1
  ret void
}

; Function Attrs: mustprogress nounwind uwtable
define linkonce_odr hidden void @_ZN12CHeapObjBasedlEPv(ptr noundef %0) #1 comdat align 2 {
  %2 = alloca ptr, align 8
  store ptr %0, ptr %2, align 8
  %3 = load ptr, ptr %2, align 8
  call void @_Z8FreeHeapPv(ptr noundef %3)
  ret void
}

; Function Attrs: mustprogress nounwind uwtable
define hidden void @_ZN16MarkedFileReaderC2EP8_IO_FILE(ptr noundef nonnull align 8 dereferenceable(24) %0, ptr noundef %1) unnamed_addr #1 align 2 {
  %3 = alloca ptr, align 8
  %4 = alloca ptr, align 8
  store ptr %0, ptr %3, align 8
  store ptr %1, ptr %4, align 8
  %5 = load ptr, ptr %3, align 8
  %6 = load ptr, ptr %4, align 8
  call void @_ZN10FileReaderC2EP8_IO_FILE(ptr noundef nonnull align 8 dereferenceable(16) %5, ptr noundef %6)
  store ptr getelementptr inbounds inrange(-16, 8) ({ [3 x ptr] }, ptr @_ZTV16MarkedFileReader, i32 0, i32 0, i32 2), ptr %5, align 8
  %7 = getelementptr inbounds %class.MarkedFileReader, ptr %5, i32 0, i32 1
  %8 = load ptr, ptr %4, align 8
  %9 = call i64 @ftell(ptr noundef %8)
  store i64 %9, ptr %7, align 8
  ret void
}

; Function Attrs: mustprogress nounwind uwtable
define linkonce_odr hidden void @_ZN9DwarfFile21MarkedDwarfFileReaderD2Ev(ptr noundef nonnull align 8 dereferenceable(40) %0) unnamed_addr #1 comdat align 2 {
  %2 = alloca ptr, align 8
  store ptr %0, ptr %2, align 8
  %3 = load ptr, ptr %2, align 8
  call void @_ZN16MarkedFileReaderD2Ev(ptr noundef nonnull align 8 dereferenceable(24) %3) #7
  ret void
}

; Function Attrs: mustprogress nounwind uwtable
define linkonce_odr hidden void @_ZN8CHeapObjIL8MEMFLAGS9EEdlEPv(ptr noundef %0) #1 comdat align 2 {
  %2 = alloca ptr, align 8
  store ptr %0, ptr %2, align 8
  %3 = load ptr, ptr %2, align 8
  call void @_ZN12CHeapObjBasedlEPv(ptr noundef %3) #7
  ret void
}

; Function Attrs: mustprogress nounwind uwtable
define linkonce_odr hidden void @_ZN9DwarfFile21MarkedDwarfFileReaderC2EP8_IO_FILE(ptr noundef nonnull align 8 dereferenceable(40) %0, ptr noundef %1) unnamed_addr #1 comdat align 2 {
  %3 = alloca ptr, align 8
  %4 = alloca ptr, align 8
  store ptr %0, ptr %3, align 8
  store ptr %1, ptr %4, align 8
  %5 = load ptr, ptr %3, align 8
  %6 = load ptr, ptr %4, align 8
  call void @_ZN16MarkedFileReaderC2EP8_IO_FILE(ptr noundef nonnull align 8 dereferenceable(24) %5, ptr noundef %6)
  store ptr getelementptr inbounds inrange(-16, 8) ({ [3 x ptr] }, ptr @_ZTVN9DwarfFile21MarkedDwarfFileReaderE, i32 0, i32 0, i32 2), ptr %5, align 8
  %7 = getelementptr inbounds %"class.DwarfFile::MarkedDwarfFileReader", ptr %5, i32 0, i32 1
  store i64 -1, ptr %7, align 8
  %8 = getelementptr inbounds %"class.DwarfFile::MarkedDwarfFileReader", ptr %5, i32 0, i32 2
  store i64 -1, ptr %8, align 8
  ret void
}

; Function Attrs: mustprogress nounwind uwtable
define linkonce_odr hidden noundef ptr @_ZNK7ElfFile2fdEv(ptr noundef nonnull align 8 dereferenceable(144) %0) #1 comdat align 2 {
  %2 = alloca ptr, align 8
  store ptr %0, ptr %2, align 8
  %3 = load ptr, ptr %2, align 8
  %4 = getelementptr inbounds %class.ElfFile, ptr %3, i32 0, i32 3
  %5 = load ptr, ptr %4, align 8
  ret ptr %5
}

; Function Attrs: mustprogress nounwind uwtable
define linkonce_odr hidden void @_ZN9DwarfFile12DebugArangesD2Ev(ptr noundef nonnull align 8 dereferenceable(64) %0) unnamed_addr #1 comdat align 2 {
  %2 = alloca ptr, align 8
  store ptr %0, ptr %2, align 8
  %3 = load ptr, ptr %2, align 8
  %4 = getelementptr inbounds %"class.DwarfFile::DebugAranges", ptr %3, i32 0, i32 1
  call void @_ZN9DwarfFile21MarkedDwarfFileReaderD2Ev(ptr noundef nonnull align 8 dereferenceable(40) %4) #7
  ret void
}

; Function Attrs: mustprogress nounwind uwtable
define linkonce_odr hidden void @_ZN9DwarfFile15CompilationUnitD2Ev(ptr noundef nonnull align 8 dereferenceable(72) %0) unnamed_addr #1 comdat align 2 {
  %2 = alloca ptr, align 8
  store ptr %0, ptr %2, align 8
  %3 = load ptr, ptr %2, align 8
  %4 = getelementptr inbounds %"class.DwarfFile::CompilationUnit", ptr %3, i32 0, i32 1
  call void @_ZN9DwarfFile21MarkedDwarfFileReaderD2Ev(ptr noundef nonnull align 8 dereferenceable(40) %4) #7
  ret void
}

; Function Attrs: mustprogress nounwind uwtable
define linkonce_odr hidden void @_ZN9DwarfFile17LineNumberProgramD2Ev(ptr noundef nonnull align 8 dereferenceable(113) %0) unnamed_addr #1 comdat align 2 {
  %2 = alloca ptr, align 8
  store ptr %0, ptr %2, align 8
  %3 = load ptr, ptr %2, align 8
  %4 = getelementptr inbounds %"class.DwarfFile::LineNumberProgram", ptr %3, i32 0, i32 3
  %5 = load ptr, ptr %4, align 8
  %6 = icmp eq ptr %5, null
  br i1 %6, label %8, label %7

7:                                                ; preds = %1
  call void @_ZN8CHeapObjIL8MEMFLAGS9EEdlEPv(ptr noundef %5) #7
  br label %8

8:                                                ; preds = %7, %1
  %9 = getelementptr inbounds %"class.DwarfFile::LineNumberProgram", ptr %3, i32 0, i32 1
  call void @_ZN9DwarfFile21MarkedDwarfFileReaderD2Ev(ptr noundef nonnull align 8 dereferenceable(40) %9) #7
  ret void
}

; Function Attrs: mustprogress nounwind uwtable
define hidden noundef zeroext i1 @_ZN9DwarfFile17LineNumberProgram29find_filename_and_line_numberEPcmPi(ptr noundef nonnull align 8 dereferenceable(113) %0, ptr noundef %1, i64 noundef %2, ptr noundef %3) #1 align 2 {
  %5 = alloca i1, align 1
  %6 = alloca ptr, align 8
  %7 = alloca ptr, align 8
  %8 = alloca i64, align 8
  %9 = alloca ptr, align 8
  store ptr %0, ptr %6, align 8
  store ptr %1, ptr %7, align 8
  store i64 %2, ptr %8, align 8
  store ptr %3, ptr %9, align 8
  %10 = load ptr, ptr %6, align 8
  %11 = call noundef zeroext i1 @_ZN9DwarfFile17LineNumberProgram11read_headerEv(ptr noundef nonnull align 8 dereferenceable(113) %10)
  br i1 %11, label %13, label %12

12:                                               ; preds = %4
  store i1 false, ptr %5, align 1
  br label %18

13:                                               ; preds = %4
  %14 = load ptr, ptr %7, align 8
  %15 = load i64, ptr %8, align 8
  %16 = load ptr, ptr %9, align 8
  %17 = call noundef zeroext i1 @_ZN9DwarfFile17LineNumberProgram23run_line_number_programEPcmPi(ptr noundef nonnull align 8 dereferenceable(113) %10, ptr noundef %14, i64 noundef %15, ptr noundef %16)
  store i1 %17, ptr %5, align 1
  br label %18

18:                                               ; preds = %13, %12
  %19 = load i1, ptr %5, align 1
  ret i1 %19
}

; Function Attrs: mustprogress nounwind uwtable
define linkonce_odr hidden void @_ZN9DwarfFile17LineNumberProgramC2EPS_jmb(ptr noundef nonnull align 8 dereferenceable(113) %0, ptr noundef %1, i32 noundef %2, i64 noundef %3, i1 noundef zeroext %4) unnamed_addr #1 comdat align 2 {
  %6 = alloca ptr, align 8
  %7 = alloca ptr, align 8
  %8 = alloca i32, align 4
  %9 = alloca i64, align 8
  %10 = alloca i8, align 1
  store ptr %0, ptr %6, align 8
  store ptr %1, ptr %7, align 8
  store i32 %2, ptr %8, align 4
  store i64 %3, ptr %9, align 8
  %11 = zext i1 %4 to i8
  store i8 %11, ptr %10, align 1
  %12 = load ptr, ptr %6, align 8
  %13 = getelementptr inbounds %"class.DwarfFile::LineNumberProgram", ptr %12, i32 0, i32 0
  %14 = load ptr, ptr %7, align 8
  store ptr %14, ptr %13, align 8
  %15 = getelementptr inbounds %"class.DwarfFile::LineNumberProgram", ptr %12, i32 0, i32 1
  %16 = load ptr, ptr %7, align 8
  %17 = call noundef ptr @_ZNK7ElfFile2fdEv(ptr noundef nonnull align 8 dereferenceable(144) %16)
  call void @_ZN9DwarfFile21MarkedDwarfFileReaderC2EP8_IO_FILE(ptr noundef nonnull align 8 dereferenceable(40) %15, ptr noundef %17)
  %18 = getelementptr inbounds %"class.DwarfFile::LineNumberProgram", ptr %12, i32 0, i32 4
  %19 = load i32, ptr %8, align 4
  store i32 %19, ptr %18, align 8
  %20 = getelementptr inbounds %"class.DwarfFile::LineNumberProgram", ptr %12, i32 0, i32 6
  %21 = load i64, ptr %9, align 8
  store i64 %21, ptr %20, align 8
  %22 = getelementptr inbounds %"class.DwarfFile::LineNumberProgram", ptr %12, i32 0, i32 7
  %23 = load i8, ptr %10, align 1
  %24 = trunc i8 %23 to i1
  %25 = zext i1 %24 to i8
  store i8 %25, ptr %22, align 8
  ret void
}

; Function Attrs: mustprogress nounwind uwtable
define linkonce_odr hidden void @_ZN9DwarfFile15CompilationUnitC2EPS_j(ptr noundef nonnull align 8 dereferenceable(72) %0, ptr noundef %1, i32 noundef %2) unnamed_addr #1 comdat align 2 {
  %4 = alloca ptr, align 8
  %5 = alloca ptr, align 8
  %6 = alloca i32, align 4
  store ptr %0, ptr %4, align 8
  store ptr %1, ptr %5, align 8
  store i32 %2, ptr %6, align 4
  %7 = load ptr, ptr %4, align 8
  %8 = getelementptr inbounds %"class.DwarfFile::CompilationUnit", ptr %7, i32 0, i32 0
  %9 = load ptr, ptr %5, align 8
  store ptr %9, ptr %8, align 8
  %10 = getelementptr inbounds %"class.DwarfFile::CompilationUnit", ptr %7, i32 0, i32 1
  %11 = load ptr, ptr %5, align 8
  %12 = call noundef ptr @_ZNK7ElfFile2fdEv(ptr noundef nonnull align 8 dereferenceable(144) %11)
  call void @_ZN9DwarfFile21MarkedDwarfFileReaderC2EP8_IO_FILE(ptr noundef nonnull align 8 dereferenceable(40) %10, ptr noundef %12)
  %13 = getelementptr inbounds %"class.DwarfFile::CompilationUnit", ptr %7, i32 0, i32 3
  %14 = load i32, ptr %6, align 4
  store i32 %14, ptr %13, align 8
  %15 = getelementptr inbounds %"class.DwarfFile::CompilationUnit", ptr %7, i32 0, i32 4
  store i32 0, ptr %15, align 4
  ret void
}

; Function Attrs: mustprogress nounwind uwtable
define linkonce_odr hidden void @_ZN9DwarfFile12DebugArangesC2EPS_(ptr noundef nonnull align 8 dereferenceable(64) %0, ptr noundef %1) unnamed_addr #1 comdat align 2 {
  %3 = alloca ptr, align 8
  %4 = alloca ptr, align 8
  store ptr %0, ptr %3, align 8
  store ptr %1, ptr %4, align 8
  %5 = load ptr, ptr %3, align 8
  %6 = getelementptr inbounds %"class.DwarfFile::DebugAranges", ptr %5, i32 0, i32 0
  %7 = load ptr, ptr %4, align 8
  store ptr %7, ptr %6, align 8
  %8 = getelementptr inbounds %"class.DwarfFile::DebugAranges", ptr %5, i32 0, i32 1
  %9 = load ptr, ptr %4, align 8
  %10 = call noundef ptr @_ZNK7ElfFile2fdEv(ptr noundef nonnull align 8 dereferenceable(144) %9)
  call void @_ZN9DwarfFile21MarkedDwarfFileReaderC2EP8_IO_FILE(ptr noundef nonnull align 8 dereferenceable(40) %8, ptr noundef %10)
  %11 = getelementptr inbounds %"class.DwarfFile::DebugAranges", ptr %5, i32 0, i32 2
  store i64 0, ptr %11, align 8
  %12 = getelementptr inbounds %"class.DwarfFile::DebugAranges", ptr %5, i32 0, i32 3
  store i64 0, ptr %12, align 8
  ret void
}

; Function Attrs: mustprogress nounwind uwtable
define hidden noundef zeroext i1 @_ZN9DwarfFile28get_filename_and_line_numberEjPcmPib(ptr noundef nonnull align 8 dereferenceable(144) %0, i32 noundef %1, ptr noundef %2, i64 noundef %3, ptr noundef %4, i1 noundef zeroext %5) #1 align 2 {
  %7 = alloca i1, align 1
  %8 = alloca ptr, align 8
  %9 = alloca i32, align 4
  %10 = alloca ptr, align 8
  %11 = alloca i64, align 8
  %12 = alloca ptr, align 8
  %13 = alloca i8, align 1
  %14 = alloca %"class.DwarfFile::DebugAranges", align 8
  %15 = alloca i32, align 4
  %16 = alloca i32, align 4
  %17 = alloca %"class.DwarfFile::CompilationUnit", align 8
  %18 = alloca i32, align 4
  %19 = alloca %"class.DwarfFile::LineNumberProgram", align 8
  store ptr %0, ptr %8, align 8
  store i32 %1, ptr %9, align 4
  store ptr %2, ptr %10, align 8
  store i64 %3, ptr %11, align 8
  store ptr %4, ptr %12, align 8
  %20 = zext i1 %5 to i8
  store i8 %20, ptr %13, align 1
  %21 = load ptr, ptr %8, align 8
  call void @_ZN9DwarfFile12DebugArangesC2EPS_(ptr noundef nonnull align 8 dereferenceable(64) %14, ptr noundef %21)
  store i32 0, ptr %15, align 4
  %22 = load i32, ptr %9, align 4
  %23 = call noundef zeroext i1 @_ZN9DwarfFile12DebugAranges28find_compilation_unit_offsetEjPj(ptr noundef nonnull align 8 dereferenceable(64) %14, i32 noundef %22, ptr noundef %15)
  br i1 %23, label %25, label %24

24:                                               ; preds = %6
  store i1 false, ptr %7, align 1
  store i32 1, ptr %16, align 4
  br label %43

25:                                               ; preds = %6
  %26 = load i32, ptr %15, align 4
  call void @_ZN9DwarfFile15CompilationUnitC2EPS_j(ptr noundef nonnull align 8 dereferenceable(72) %17, ptr noundef %21, i32 noundef %26)
  store i32 0, ptr %18, align 4
  %27 = call noundef zeroext i1 @_ZN9DwarfFile15CompilationUnit22find_debug_line_offsetEPj(ptr noundef nonnull align 8 dereferenceable(72) %17, ptr noundef %18)
  br i1 %27, label %29, label %28

28:                                               ; preds = %25
  store i1 false, ptr %7, align 1
  store i32 1, ptr %16, align 4
  br label %42

29:                                               ; preds = %25
  %30 = load i32, ptr %9, align 4
  %31 = load i32, ptr %18, align 4
  %32 = zext i32 %31 to i64
  %33 = load i8, ptr %13, align 1
  %34 = trunc i8 %33 to i1
  call void @_ZN9DwarfFile17LineNumberProgramC2EPS_jmb(ptr noundef nonnull align 8 dereferenceable(113) %19, ptr noundef %21, i32 noundef %30, i64 noundef %32, i1 noundef zeroext %34)
  %35 = load ptr, ptr %10, align 8
  %36 = load i64, ptr %11, align 8
  %37 = load ptr, ptr %12, align 8
  %38 = call noundef zeroext i1 @_ZN9DwarfFile17LineNumberProgram29find_filename_and_line_numberEPcmPi(ptr noundef nonnull align 8 dereferenceable(113) %19, ptr noundef %35, i64 noundef %36, ptr noundef %37)
  br i1 %38, label %40, label %39

39:                                               ; preds = %29
  store i1 false, ptr %7, align 1
  store i32 1, ptr %16, align 4
  br label %41

40:                                               ; preds = %29
  store i1 true, ptr %7, align 1
  store i32 1, ptr %16, align 4
  br label %41

41:                                               ; preds = %40, %39
  call void @_ZN9DwarfFile17LineNumberProgramD2Ev(ptr noundef nonnull align 8 dereferenceable(113) %19) #7
  br label %42

42:                                               ; preds = %41, %28
  call void @_ZN9DwarfFile15CompilationUnitD2Ev(ptr noundef nonnull align 8 dereferenceable(72) %17) #7
  br label %43

43:                                               ; preds = %42, %24
  call void @_ZN9DwarfFile12DebugArangesD2Ev(ptr noundef nonnull align 8 dereferenceable(64) %14) #7
  %44 = load i1, ptr %7, align 1
  ret i1 %44
}