; Function Attrs: mustprogress nounwind uwtable
define hidden noundef zeroext i1 @_ZN9DwarfFile28get_filename_and_line_numberEjPcmPib(ptr noundef nonnull align 8 dereferenceable(144) %0, i32 noundef %1, ptr noundef %2, i64 noundef %3, ptr nocapture noundef writeonly %4, i1 noundef zeroext %5) local_unnamed_addr #0 align 2 {
  %7 = alloca %"class.DwarfFile::DebugAranges", align 8
  %8 = alloca i32, align 4
  %9 = alloca %"class.DwarfFile::CompilationUnit", align 8
  %10 = alloca i32, align 4
  %11 = alloca %"class.DwarfFile::LineNumberProgram", align 8
  store ptr %0, ptr %7, align 8
  %12 = getelementptr inbounds i8, ptr %7, i64 8
  %13 = getelementptr inbounds i8, ptr %0, i64 24
  %14 = load ptr, ptr %13, align 8
  %15 = getelementptr inbounds i8, ptr %7, i64 16
  store ptr %14, ptr %15, align 8
  %16 = getelementptr inbounds i8, ptr %7, i64 24
  %17 = tail call i64 @ftell(ptr noundef %14)
  store i64 %17, ptr %16, align 8
  store ptr getelementptr inbounds inrange(-16, 8) (i8, ptr @_ZTVN9DwarfFile21MarkedDwarfFileReaderE, i64 16), ptr %12, align 8
  %18 = getelementptr inbounds i8, ptr %7, i64 32
  call void @llvm.memset.p0.i64(ptr noundef nonnull align 8 dereferenceable(16) %18, i8 -1, i64 16, i1 false)
  %19 = getelementptr inbounds i8, ptr %7, i64 48
  call void @llvm.memset.p0.i64(ptr noundef nonnull align 8 dereferenceable(16) %19, i8 0, i64 16, i1 false)
  store i32 0, ptr %8, align 4
  %20 = call noundef zeroext i1 @_ZN9DwarfFile12DebugAranges28find_compilation_unit_offsetEjPj(ptr noundef nonnull align 8 dereferenceable(64) %7, i32 noundef %1, ptr noundef nonnull %8)
  br i1 %20, label %21, label %_ZN9DwarfFile15CompilationUnitD2Ev.exit

21:                                               ; preds = %6
  %22 = load i32, ptr %8, align 4
  store ptr %0, ptr %9, align 8
  %23 = getelementptr inbounds i8, ptr %9, i64 8
  %24 = load ptr, ptr %13, align 8
  %25 = getelementptr inbounds i8, ptr %9, i64 16
  store ptr %24, ptr %25, align 8
  %26 = getelementptr inbounds i8, ptr %9, i64 24
  %27 = call i64 @ftell(ptr noundef %24)
  store i64 %27, ptr %26, align 8
  store ptr getelementptr inbounds inrange(-16, 8) (i8, ptr @_ZTVN9DwarfFile21MarkedDwarfFileReaderE, i64 16), ptr %23, align 8
  %28 = getelementptr inbounds i8, ptr %9, i64 32
  call void @llvm.memset.p0.i64(ptr noundef nonnull align 8 dereferenceable(16) %28, i8 -1, i64 16, i1 false)
  %29 = getelementptr inbounds i8, ptr %9, i64 64
  store i32 %22, ptr %29, align 8
  %30 = getelementptr inbounds i8, ptr %9, i64 68
  store i32 0, ptr %30, align 4
  store i32 0, ptr %10, align 4
  %31 = call noundef zeroext i1 @_ZN9DwarfFile15CompilationUnit22find_debug_line_offsetEPj(ptr noundef nonnull align 8 dereferenceable(72) %9, ptr noundef nonnull %10)
  br i1 %31, label %32, label %_ZN9DwarfFile17LineNumberProgramD2Ev.exit

32:                                               ; preds = %21
  %33 = load i32, ptr %10, align 4
  %34 = zext i32 %33 to i64
  %35 = zext i1 %5 to i8
  store ptr %0, ptr %11, align 8
  %36 = getelementptr inbounds i8, ptr %11, i64 8
  %37 = load ptr, ptr %13, align 8
  %38 = getelementptr inbounds i8, ptr %11, i64 16
  store ptr %37, ptr %38, align 8
  %39 = getelementptr inbounds i8, ptr %11, i64 24
  %40 = call i64 @ftell(ptr noundef %37)
  store i64 %40, ptr %39, align 8
  store ptr getelementptr inbounds inrange(-16, 8) (i8, ptr @_ZTVN9DwarfFile21MarkedDwarfFileReaderE, i64 16), ptr %36, align 8
  %41 = getelementptr inbounds i8, ptr %11, i64 32
  call void @llvm.memset.p0.i64(ptr noundef nonnull align 8 dereferenceable(16) %41, i8 -1, i64 16, i1 false)
  %42 = getelementptr inbounds i8, ptr %11, i64 96
  store i32 %1, ptr %42, align 8
  %43 = getelementptr inbounds i8, ptr %11, i64 104
  store i64 %34, ptr %43, align 8
  %44 = getelementptr inbounds i8, ptr %11, i64 112
  store i8 %35, ptr %44, align 8
  %45 = call noundef zeroext i1 @_ZN9DwarfFile17LineNumberProgram11read_headerEv(ptr noundef nonnull align 8 dereferenceable(113) %11)
  br i1 %45, label %46, label %_ZN9DwarfFile17LineNumberProgram29find_filename_and_line_numberEPcmPi.exit

46:                                               ; preds = %32
  %47 = call noundef zeroext i1 @_ZN9DwarfFile17LineNumberProgram23run_line_number_programEPcmPi(ptr noundef nonnull align 8 dereferenceable(113) %11, ptr noundef %2, i64 noundef %3, ptr noundef %4)
  br label %_ZN9DwarfFile17LineNumberProgram29find_filename_and_line_numberEPcmPi.exit

_ZN9DwarfFile17LineNumberProgram29find_filename_and_line_numberEPcmPi.exit: ; preds = %32, %46
  %.0.i = phi i1 [ %47, %46 ], [ false, %32 ]
  %48 = getelementptr inbounds i8, ptr %11, i64 88
  %49 = load ptr, ptr %48, align 8
  %50 = icmp eq ptr %49, null
  br i1 %50, label %52, label %51

51:                                               ; preds = %_ZN9DwarfFile17LineNumberProgram29find_filename_and_line_numberEPcmPi.exit
  call void @_Z8FreeHeapPv(ptr noundef nonnull %49) #15
  br label %52

52:                                               ; preds = %51, %_ZN9DwarfFile17LineNumberProgram29find_filename_and_line_numberEPcmPi.exit
  %53 = load i64, ptr %39, align 8
  %.not.i.i.i = icmp eq i64 %53, -1
  br i1 %.not.i.i.i, label %_ZN9DwarfFile17LineNumberProgramD2Ev.exit, label %54

54:                                               ; preds = %52
  %55 = load ptr, ptr %38, align 8
  %56 = call i32 @fseek(ptr noundef %55, i64 noundef %53, i32 noundef 0)
  br label %_ZN9DwarfFile17LineNumberProgramD2Ev.exit

_ZN9DwarfFile17LineNumberProgramD2Ev.exit:        ; preds = %54, %52, %21
  %.1 = phi i1 [ false, %21 ], [ %.0.i, %52 ], [ %.0.i, %54 ]
  store ptr getelementptr inbounds inrange(-16, 8) (i8, ptr @_ZTV16MarkedFileReader, i64 16), ptr %23, align 8
  %57 = load i64, ptr %26, align 8
  %.not.i.i.i7 = icmp eq i64 %57, -1
  br i1 %.not.i.i.i7, label %_ZN9DwarfFile15CompilationUnitD2Ev.exit, label %58

58:                                               ; preds = %_ZN9DwarfFile17LineNumberProgramD2Ev.exit
  %59 = load ptr, ptr %25, align 8
  %60 = call i32 @fseek(ptr noundef %59, i64 noundef %57, i32 noundef 0)
  br label %_ZN9DwarfFile15CompilationUnitD2Ev.exit

_ZN9DwarfFile15CompilationUnitD2Ev.exit:          ; preds = %58, %_ZN9DwarfFile17LineNumberProgramD2Ev.exit, %6
  %.2 = phi i1 [ false, %6 ], [ %.1, %_ZN9DwarfFile17LineNumberProgramD2Ev.exit ], [ %.1, %58 ]
  store ptr getelementptr inbounds inrange(-16, 8) (i8, ptr @_ZTV16MarkedFileReader, i64 16), ptr %12, align 8
  %61 = load i64, ptr %16, align 8
  %.not.i.i.i8 = icmp eq i64 %61, -1
  br i1 %.not.i.i.i8, label %_ZN9DwarfFile12DebugArangesD2Ev.exit, label %62

62:                                               ; preds = %_ZN9DwarfFile15CompilationUnitD2Ev.exit
  %63 = load ptr, ptr %15, align 8
  %64 = call i32 @fseek(ptr noundef %63, i64 noundef %61, i32 noundef 0)
  br label %_ZN9DwarfFile12DebugArangesD2Ev.exit

_ZN9DwarfFile12DebugArangesD2Ev.exit:             ; preds = %_ZN9DwarfFile15CompilationUnitD2Ev.exit, %62
  ret i1 %.2
}